target datalayout = "e-m:e-p270:32:32-p271:32:32-p272:64:64-i64:64-i128:128-f80:128-n8:16:32:64-S128"
target triple = "x86_64-pc-linux-gnu"

%struct.Intb_Man_t_ = type { ptr, ptr, i32, i32, i32, i32, i32, i32, i32, ptr, ptr, ptr, ptr, ptr, ptr, ptr, ptr, i32, i32, ptr, ptr, ptr, i32, i32, i64, i64, i64 }
%struct.Sto_Cls_t_ = type { ptr, ptr, ptr, i32, i32, [0 x i32] }

@.str.1 = private unnamed_addr constant [4 x i8] c" %d\00", align 1
@.str.6 = private unnamed_addr constant [3 x i8] c"%d\00", align 1
@.str.7 = private unnamed_addr constant [6 x i8] c" 0 0\0A\00", align 1

; Function Attrs: inlinehint nounwind uwtable
define internal i32 @lit_var(i32 noundef %0) #4 {
  %2 = alloca i32, align 4
  store i32 %0, ptr %2, align 4, !tbaa !23
  %3 = load i32, ptr %2, align 4, !tbaa !23
  %4 = ashr i32 %3, 1
  ret i32 %4
}

; Function Attrs: inlinehint nounwind uwtable
define internal i32 @lit_sign(i32 noundef %0) #4 {
  %2 = alloca i32, align 4
  store i32 %0, ptr %2, align 4, !tbaa !23
  %3 = load i32, ptr %2, align 4, !tbaa !23
  %4 = and i32 %3, 1
  ret i32 %4
}

; Function Attrs: inlinehint nounwind uwtable
define internal i32 @lit_print(i32 noundef %0) #4 {
  %2 = alloca i32, align 4
  store i32 %0, ptr %2, align 4, !tbaa !23
  %3 = load i32, ptr %2, align 4, !tbaa !23
  %4 = call i32 @lit_sign(i32 noundef %3)
  %5 = icmp ne i32 %4, 0
  br i1 %5, label %6, label %11

6:                                                ; preds = %1
  %7 = load i32, ptr %2, align 4, !tbaa !23
  %8 = call i32 @lit_var(i32 noundef %7)
  %9 = sub nsw i32 0, %8
  %10 = sub nsw i32 %9, 1
  br label %15

11:                                               ; preds = %1
  %12 = load i32, ptr %2, align 4, !tbaa !23
  %13 = call i32 @lit_var(i32 noundef %12)
  %14 = add nsw i32 %13, 1
  br label %15

15:                                               ; preds = %11, %6
  %16 = phi i32 [ %10, %6 ], [ %14, %11 ]
  ret i32 %16
}

; Function Attrs: inlinehint nounwind uwtable
define internal i32 @Intb_ManProofGet(ptr noundef %0, ptr noundef %1) #4 {
  %3 = alloca ptr, align 8
  %4 = alloca ptr, align 8
  store ptr %0, ptr %3, align 8, !tbaa !3
  store ptr %1, ptr %4, align 8, !tbaa !28
  %5 = load ptr, ptr %3, align 8, !tbaa !3
  %6 = getelementptr inbounds nuw %struct.Intb_Man_t_, ptr %5, i32 0, i32 19
  %7 = load ptr, ptr %6, align 8, !tbaa !56
  %8 = load ptr, ptr %4, align 8, !tbaa !28
  %9 = getelementptr inbounds nuw %struct.Sto_Cls_t_, ptr %8, i32 0, i32 3
  %10 = load i32, ptr %9, align 8, !tbaa !59
  %11 = sext i32 %10 to i64
  %12 = getelementptr inbounds i32, ptr %7, i64 %11
  %13 = load i32, ptr %12, align 4, !tbaa !23
  ret i32 %13
}

; Function Attrs: inlinehint nounwind uwtable
define internal void @Intb_ManProofSet(ptr noundef %0, ptr noundef %1, i32 noundef %2) #4 {
  %4 = alloca ptr, align 8
  %5 = alloca ptr, align 8
  %6 = alloca i32, align 4
  store ptr %0, ptr %4, align 8, !tbaa !3
  store ptr %1, ptr %5, align 8, !tbaa !28
  store i32 %2, ptr %6, align 4, !tbaa !23
  %7 = load i32, ptr %6, align 4, !tbaa !23
  %8 = load ptr, ptr %4, align 8, !tbaa !3
  %9 = getelementptr inbounds nuw %struct.Intb_Man_t_, ptr %8, i32 0, i32 19
  %10 = load ptr, ptr %9, align 8, !tbaa !56
  %11 = load ptr, ptr %5, align 8, !tbaa !28
  %12 = getelementptr inbounds nuw %struct.Sto_Cls_t_, ptr %11, i32 0, i32 3
  %13 = load i32, ptr %12, align 8, !tbaa !59
  %14 = sext i32 %13 to i64
  %15 = getelementptr inbounds i32, ptr %10, i64 %14
  store i32 %7, ptr %15, align 4, !tbaa !23
  ret void
}

; Function Attrs: nounwind uwtable
define void @Intb_ManProofWriteOne(ptr noundef %0, ptr noundef %1) #0 {
  %3 = alloca ptr, align 8
  %4 = alloca ptr, align 8
  %5 = alloca i32, align 4
  store ptr %0, ptr %3, align 8, !tbaa !3
  store ptr %1, ptr %4, align 8, !tbaa !28
  %6 = load ptr, ptr %3, align 8, !tbaa !3
  %7 = load ptr, ptr %4, align 8, !tbaa !28
  %8 = load ptr, ptr %3, align 8, !tbaa !3
  %9 = getelementptr inbounds nuw %struct.Intb_Man_t_, ptr %8, i32 0, i32 18
  %10 = load i32, ptr %9, align 4, !tbaa !45
  %11 = add nsw i32 %10, 1
  store i32 %11, ptr %9, align 4, !tbaa !45
  call void @Intb_ManProofSet(ptr noundef %6, ptr noundef %7, i32 noundef %11)
  %12 = load ptr, ptr %3, align 8, !tbaa !3
  %13 = getelementptr inbounds nuw %struct.Intb_Man_t_, ptr %12, i32 0, i32 4
  %14 = load i32, ptr %13, align 8, !tbaa !21
  %15 = icmp ne i32 %14, 0
  br i1 %15, label %16, label %52

16:                                               ; preds = %2
  call void @llvm.lifetime.start.p0(i64 4, ptr %5) #9
  %17 = load ptr, ptr %3, align 8, !tbaa !3
  %18 = getelementptr inbounds nuw %struct.Intb_Man_t_, ptr %17, i32 0, i32 20
  %19 = load ptr, ptr %18, align 8, !tbaa !72
  %20 = load ptr, ptr %3, align 8, !tbaa !3
  %21 = load ptr, ptr %4, align 8, !tbaa !28
  %22 = call i32 @Intb_ManProofGet(ptr noundef %20, ptr noundef %21)
  %23 = call i32 (ptr, ptr, ...) @fprintf(ptr noundef %19, ptr noundef @.str.6, i32 noundef %22) #9
  store i32 0, ptr %5, align 4, !tbaa !23
  br label %24

24:                                               ; preds = %44, %16
  %25 = load i32, ptr %5, align 4, !tbaa !23
  %26 = load ptr, ptr %4, align 8, !tbaa !28
  %27 = getelementptr inbounds nuw %struct.Sto_Cls_t_, ptr %26, i32 0, i32 4
  %28 = load i32, ptr %27, align 4
  %29 = lshr i32 %28, 3
  %30 = and i32 %29, 16777215
  %31 = icmp slt i32 %25, %30
  br i1 %31, label %32, label %47

32:                                               ; preds = %24
  %33 = load ptr, ptr %3, align 8, !tbaa !3
  %34 = getelementptr inbounds nuw %struct.Intb_Man_t_, ptr %33, i32 0, i32 20
  %35 = load ptr, ptr %34, align 8, !tbaa !72
  %36 = load ptr, ptr %4, align 8, !tbaa !28
  %37 = getelementptr inbounds nuw %struct.Sto_Cls_t_, ptr %36, i32 0, i32 5
  %38 = load i32, ptr %5, align 4, !tbaa !23
  %39 = sext i32 %38 to i64
  %40 = getelementptr inbounds [0 x i32], ptr %37, i64 0, i64 %39
  %41 = load i32, ptr %40, align 4, !tbaa !23
  %42 = call i32 @lit_print(i32 noundef %41)
  %43 = call i32 (ptr, ptr, ...) @fprintf(ptr noundef %35, ptr noundef @.str.1, i32 noundef %42) #9
  br label %44

44:                                               ; preds = %32
  %45 = load i32, ptr %5, align 4, !tbaa !23
  %46 = add nsw i32 %45, 1
  store i32 %46, ptr %5, align 4, !tbaa !23
  br label %24, !llvm.loop !73

47:                                               ; preds = %24
  %48 = load ptr, ptr %3, align 8, !tbaa !3
  %49 = getelementptr inbounds nuw %struct.Intb_Man_t_, ptr %48, i32 0, i32 20
  %50 = load ptr, ptr %49, align 8, !tbaa !72
  %51 = call i32 (ptr, ptr, ...) @fprintf(ptr noundef %50, ptr noundef @.str.7) #9
  call void @llvm.lifetime.end.p0(i64 4, ptr %5) #9
  br label %52

52:                                               ; preds = %47, %2
  ret void
}